target datalayout = "e-m:e-p270:32:32-p271:32:32-p272:64:64-i64:64-i128:128-f80:128-n8:16:32:64-S128"
target triple = "x86_64-pc-linux-gnu"

%struct._packet_info = type { ptr, ptr, i32, i32, %struct.nstime_t, %struct.nstime_t, %struct.nstime_t, i8, ptr, ptr, ptr, ptr, %struct._address, %struct._address, %struct._address, %struct._address, %struct._address, %struct._address, i32, ptr, i8, [3 x i8], %struct.anon, i32, i32, i32, i32, ptr, i8, ptr, ptr, i16, i16, i32, i32, i16, i32, i32, ptr, ptr, ptr, i8, i8, i16, i16, i16, i32, i16, i16, ptr, ptr, ptr, ptr, ptr, i32, i32 }
%struct.nstime_t = type { i64, i32 }
%struct._address = type { i32, i32, ptr, ptr }
%struct.anon = type { i8, [3 x i8] }

; Function Attrs: null_pointer_is_valid sspstrong uwtable
define internal i32 @classify_mbrtu_packet(ptr noundef %0, ptr noundef %1, ptr noundef %2) #0 {
  %4 = alloca i32, align 4
  %5 = alloca ptr, align 8
  %6 = alloca ptr, align 8
  %7 = alloca ptr, align 8
  %8 = alloca i8, align 1
  %9 = alloca i8, align 1
  %10 = alloca i32, align 4
  store ptr %0, ptr %5, align 8
  store ptr %1, ptr %6, align 8
  store ptr %2, ptr %7, align 8
  call void @llvm.lifetime.start.p0(i64 1, ptr %8) #10
  call void @llvm.lifetime.start.p0(i64 1, ptr %9) #10
  %11 = load ptr, ptr %6, align 8
  %12 = call zeroext i8 @tvb_get_uint8(ptr noundef %11, i32 noundef 1)
  store i8 %12, ptr %8, align 1
  %13 = load ptr, ptr %6, align 8
  %14 = call i32 @tvb_reported_length(ptr noundef %13)
  %15 = trunc i32 %14 to i8
  store i8 %15, ptr %9, align 1
  %16 = load ptr, ptr %7, align 8
  %17 = load ptr, ptr %5, align 8
  %18 = getelementptr inbounds nuw %struct._packet_info, ptr %17, i32 0, i32 24
  %19 = load i32, ptr %18, align 4
  %20 = call zeroext i1 @value_is_in_range(ptr noundef %16, i32 noundef %19)
  br i1 %20, label %21, label %28

21:                                               ; preds = %3
  %22 = load ptr, ptr %7, align 8
  %23 = load ptr, ptr %5, align 8
  %24 = getelementptr inbounds nuw %struct._packet_info, ptr %23, i32 0, i32 25
  %25 = load i32, ptr %24, align 8
  %26 = call zeroext i1 @value_is_in_range(ptr noundef %22, i32 noundef %25)
  br i1 %26, label %28, label %27

27:                                               ; preds = %21
  store i32 1, ptr %4, align 4
  store i32 1, ptr %10, align 4
  br label %76

28:                                               ; preds = %21, %3
  %29 = load ptr, ptr %7, align 8
  %30 = load ptr, ptr %5, align 8
  %31 = getelementptr inbounds nuw %struct._packet_info, ptr %30, i32 0, i32 24
  %32 = load i32, ptr %31, align 4
  %33 = call zeroext i1 @value_is_in_range(ptr noundef %29, i32 noundef %32)
  br i1 %33, label %41, label %34

34:                                               ; preds = %28
  %35 = load ptr, ptr %7, align 8
  %36 = load ptr, ptr %5, align 8
  %37 = getelementptr inbounds nuw %struct._packet_info, ptr %36, i32 0, i32 25
  %38 = load i32, ptr %37, align 8
  %39 = call zeroext i1 @value_is_in_range(ptr noundef %35, i32 noundef %38)
  br i1 %39, label %40, label %41

40:                                               ; preds = %34
  store i32 0, ptr %4, align 4
  store i32 1, ptr %10, align 4
  br label %76

41:                                               ; preds = %34, %28
  %42 = load i8, ptr %8, align 1
  %43 = zext i8 %42 to i32
  %44 = and i32 %43, 128
  %45 = icmp ne i32 %44, 0
  br i1 %45, label %46, label %47

46:                                               ; preds = %41
  store i32 1, ptr %4, align 4
  store i32 1, ptr %10, align 4
  br label %76

47:                                               ; preds = %41
  %48 = load i8, ptr %8, align 1
  %49 = zext i8 %48 to i32
  switch i32 %49, label %75 [
    i32 1, label %50
    i32 2, label %50
    i32 3, label %62
    i32 4, label %62
    i32 5, label %68
    i32 6, label %68
    i32 16, label %69
    i32 15, label %69
  ]

50:                                               ; preds = %47, %47
  %51 = load i8, ptr %9, align 1
  %52 = zext i8 %51 to i32
  %53 = icmp eq i32 %52, 8
  br i1 %53, label %54, label %61

54:                                               ; preds = %50
  %55 = load ptr, ptr %6, align 8
  %56 = call zeroext i8 @tvb_get_uint8(ptr noundef %55, i32 noundef 2)
  %57 = zext i8 %56 to i32
  %58 = icmp eq i32 %57, 3
  br i1 %58, label %59, label %60

59:                                               ; preds = %54
  store i32 1, ptr %4, align 4
  store i32 1, ptr %10, align 4
  br label %76

60:                                               ; preds = %54
  store i32 0, ptr %4, align 4
  store i32 1, ptr %10, align 4
  br label %76

61:                                               ; preds = %50
  store i32 1, ptr %4, align 4
  store i32 1, ptr %10, align 4
  br label %76

62:                                               ; preds = %47, %47
  %63 = load i8, ptr %9, align 1
  %64 = zext i8 %63 to i32
  %65 = icmp eq i32 %64, 8
  br i1 %65, label %66, label %67

66:                                               ; preds = %62
  store i32 0, ptr %4, align 4
  store i32 1, ptr %10, align 4
  br label %76

67:                                               ; preds = %62
  store i32 1, ptr %4, align 4
  store i32 1, ptr %10, align 4
  br label %76

68:                                               ; preds = %47, %47
  store i32 2, ptr %4, align 4
  store i32 1, ptr %10, align 4
  br label %76

69:                                               ; preds = %47, %47
  %70 = load i8, ptr %9, align 1
  %71 = zext i8 %70 to i32
  %72 = icmp eq i32 %71, 8
  br i1 %72, label %73, label %74

73:                                               ; preds = %69
  store i32 1, ptr %4, align 4
  store i32 1, ptr %10, align 4
  br label %76

74:                                               ; preds = %69
  store i32 0, ptr %4, align 4
  store i32 1, ptr %10, align 4
  br label %76

75:                                               ; preds = %47
  store i32 2, ptr %4, align 4
  store i32 1, ptr %10, align 4
  br label %76

76:                                               ; preds = %75, %74, %73, %68, %67, %66, %61, %60, %59, %46, %40, %27
  call void @llvm.lifetime.end.p0(i64 1, ptr %9) #10
  call void @llvm.lifetime.end.p0(i64 1, ptr %8) #10
  %77 = load i32, ptr %4, align 4
  ret i32 %77
}