; Function Attrs: null_pointer_is_valid sspstrong uwtable
define internal fastcc range(i32 0, 3) i32 @classify_mbrtu_packet(ptr noundef readonly captures(none) %0, ptr noundef %1, ptr noundef %2) unnamed_addr #0 {
  %4 = tail call zeroext i8 @tvb_get_uint8(ptr noundef %1, i32 noundef 1)
  %5 = tail call i32 @tvb_reported_length(ptr noundef %1)
  %6 = getelementptr inbounds nuw i8, ptr %0, i64 284
  %7 = load i32, ptr %6, align 4
  %8 = tail call zeroext i1 @value_is_in_range(ptr noundef %2, i32 noundef %7)
  br i1 %8, label %9, label %13

9:                                                ; preds = %3
  %10 = getelementptr inbounds nuw i8, ptr %0, i64 288
  %11 = load i32, ptr %10, align 8
  %12 = tail call zeroext i1 @value_is_in_range(ptr noundef %2, i32 noundef %11)
  br i1 %12, label %13, label %34

13:                                               ; preds = %9, %3
  %14 = load i32, ptr %6, align 4
  %15 = tail call zeroext i1 @value_is_in_range(ptr noundef %2, i32 noundef %14)
  br i1 %15, label %20, label %16

16:                                               ; preds = %13
  %17 = getelementptr inbounds nuw i8, ptr %0, i64 288
  %18 = load i32, ptr %17, align 8
  %19 = tail call zeroext i1 @value_is_in_range(ptr noundef %2, i32 noundef %18)
  br i1 %19, label %34, label %20

20:                                               ; preds = %16, %13
  %.not = icmp sgt i8 %4, -1
  br i1 %.not, label %21, label %34

21:                                               ; preds = %20
  switch i8 %4, label %34 [
    i8 1, label %22
    i8 2, label %22
    i8 3, label %28
    i8 4, label %28
    i8 15, label %31
    i8 16, label %31
  ]

22:                                               ; preds = %21, %21
  %23 = and i32 %5, 255
  %24 = icmp eq i32 %23, 8
  br i1 %24, label %25, label %34

25:                                               ; preds = %22
  %26 = tail call zeroext i8 @tvb_get_uint8(ptr noundef %1, i32 noundef 2)
  %27 = icmp eq i8 %26, 3
  %. = zext i1 %27 to i32
  br label %34

28:                                               ; preds = %21, %21
  %29 = and i32 %5, 255
  %30 = icmp ne i32 %29, 8
  %.16 = zext i1 %30 to i32
  br label %34

31:                                               ; preds = %21, %21
  %32 = and i32 %5, 255
  %33 = icmp eq i32 %32, 8
  %.17 = zext i1 %33 to i32
  br label %34

34:                                               ; preds = %21, %31, %28, %22, %25, %20, %16, %9
  %.0 = phi i32 [ 1, %9 ], [ 0, %16 ], [ 1, %20 ], [ %., %25 ], [ 1, %22 ], [ %.16, %28 ], [ %.17, %31 ], [ 2, %21 ]
  ret i32 %.0
}